target datalayout = "e-m:e-p270:32:32-p271:32:32-p272:64:64-i64:64-i128:128-f80:128-n8:16:32:64-S128"
target triple = "x86_64-unknown-linux-gnu"

%struct.E1000State_st = type { %struct.PCIDevice, ptr, %struct.NICConf, %struct.MemoryRegion, %struct.MemoryRegion, [32768 x i32], [32 x i16], [64 x i16], i32, i32, %struct.e1000_tx, %struct.anon, ptr, ptr, i8, i8, i32, ptr, i32, i8, i8, %struct.e1000x_txd_props }
%struct.PCIDevice = type { %struct.DeviceState, i8, i8, ptr, ptr, ptr, ptr, ptr, i32, %struct.PCIReqIDCache, [64 x i8], [7 x %struct.PCIIORegion], %struct.AddressSpace, %struct.MemoryRegion, %struct.MemoryRegion, ptr, ptr, [3 x ptr], i8, i8, i32, i8, i32, ptr, ptr, ptr, ptr, ptr, ptr, %struct.MemoryRegion, %struct.MemoryRegion, %struct.MemoryRegion, ptr, i8, i32, i8, %struct.PCIExpressDevice, ptr, ptr, i32, i8, %struct.MemoryRegion, i32, ptr, ptr, ptr, ptr, ptr, i32 }
%struct.DeviceState = type { %struct.Object, ptr, ptr, i8, i8, i64, ptr, i32, i8, ptr, %struct.NamedGPIOListHead, %struct.NamedClockListHead, %struct.BusStateHead, i32, i32, i32, %struct.ResettableState, ptr, %struct.MemReentrancyGuard }
%struct.Object = type { ptr, ptr, ptr, i32, ptr }
%struct.NamedGPIOListHead = type { ptr }
%struct.NamedClockListHead = type { ptr }
%struct.BusStateHead = type { ptr }
%struct.ResettableState = type { i32, i8, i8 }
%struct.MemReentrancyGuard = type { i8 }
%struct.PCIReqIDCache = type { ptr, i32 }
%struct.PCIIORegion = type { i64, i64, i8, ptr, ptr }
%struct.AddressSpace = type { %struct.rcu_head, ptr, ptr, ptr, i32, i32, ptr, %union.anon, %union.anon.0 }
%struct.rcu_head = type { ptr, ptr }
%union.anon = type { %struct.QTailQLink }
%struct.QTailQLink = type { ptr, ptr }
%union.anon.0 = type { %struct.QTailQLink }
%struct.PCIExpressDevice = type { i8, i8, i8, i16, %struct.PCIEAERLog, i16, i16, i16, %struct.PCIESriovPF, %struct.PCIESriovVF }
%struct.PCIEAERLog = type { i16, i16, ptr }
%struct.PCIESriovPF = type { i16, [7 x i8], ptr, ptr }
%struct.PCIESriovVF = type { ptr, i16 }
%struct.NICConf = type { %struct.MACAddr, %struct.NICPeers, i32 }
%struct.MACAddr = type { [6 x i8] }
%struct.NICPeers = type { [1024 x ptr], i32 }
%struct.MemoryRegion = type { %struct.Object, i8, i8, i8, i8, i8, i8, i8, i8, i8, i8, ptr, ptr, ptr, ptr, ptr, ptr, i32, i128, i64, ptr, i64, i8, i8, i8, i8, i8, ptr, i64, i32, %union.anon.1, %union.anon.2, %union.anon.3, ptr, i32, ptr, ptr, i8 }
%union.anon.1 = type { %struct.QTailQLink }
%union.anon.2 = type { %struct.QTailQLink }
%union.anon.3 = type { %struct.QTailQLink }
%struct.e1000_tx = type { [256 x i8], [4 x i8], [4 x i8], [65536 x i8], i16, i8, i8, i8, %struct.e1000x_txd_props, %struct.e1000x_txd_props, i16, i8 }
%struct.anon = type { i32, i16, i16, i16, i32 }
%struct.e1000x_txd_props = type { i8, i8, i16, i8, i8, i16, i32, i8, i16, i8, i8, i8 }

; Function Attrs: nounwind sspstrong uwtable
define internal i64 @qemu_clock_get_ms(i32 noundef %type) #0 {
entry:
  %type.addr = alloca i32, align 4
  store i32 %type, ptr %type.addr, align 4
  %0 = load i32, ptr %type.addr, align 4
  %call = call i64 @qemu_clock_get_ns(i32 noundef %0)
  %div = sdiv i64 %call, 1000000
  ret i64 %div
}

; Function Attrs: nounwind sspstrong uwtable
define internal void @set_rx_control(ptr noundef %s, i32 noundef %index, i32 noundef %val) #0 {
entry:
  %s.addr = alloca ptr, align 8
  %index.addr = alloca i32, align 4
  %val.addr = alloca i32, align 4
  store ptr %s, ptr %s.addr, align 8
  store i32 %index, ptr %index.addr, align 4
  store i32 %val, ptr %val.addr, align 4
  %0 = load i32, ptr %val.addr, align 4
  %1 = load ptr, ptr %s.addr, align 8
  %mac_reg = getelementptr inbounds %struct.E1000State_st, ptr %1, i32 0, i32 5
  %arrayidx = getelementptr [32768 x i32], ptr %mac_reg, i64 0, i64 64
  store i32 %0, ptr %arrayidx, align 16
  %2 = load i32, ptr %val.addr, align 4
  %call = call i32 @e1000x_rxbufsize(i32 noundef %2)
  %3 = load ptr, ptr %s.addr, align 8
  %rxbuf_size = getelementptr inbounds %struct.E1000State_st, ptr %3, i32 0, i32 8
  store i32 %call, ptr %rxbuf_size, align 16
  %4 = load i32, ptr %val.addr, align 4
  %div = udiv i32 %4, 256
  %and = and i32 %div, 3
  %add = add i32 %and, 1
  %5 = load ptr, ptr %s.addr, align 8
  %rxbuf_min_shift = getelementptr inbounds %struct.E1000State_st, ptr %5, i32 0, i32 9
  store i32 %add, ptr %rxbuf_min_shift, align 4
  br label %do.body

do.body:                                          ; preds = %entry
  br label %do.end

do.end:                                           ; preds = %do.body
  %6 = load ptr, ptr %s.addr, align 8
  %flush_queue_timer = getelementptr inbounds %struct.E1000State_st, ptr %6, i32 0, i32 17
  %7 = load ptr, ptr %flush_queue_timer, align 16
  %call1 = call i64 @qemu_clock_get_ms(i32 noundef 1)
  %add2 = add i64 %call1, 1000
  call void @timer_mod(ptr noundef %7, i64 noundef %add2)
  ret void
}