; Function Attrs: nounwind sspstrong uwtable
define internal void @set_rx_control(ptr noundef captures(none) initializes((11632, 11636), (142640, 142648)) %s, i32 %index, i32 noundef %val) #0 {
entry:
  %arrayidx = getelementptr i8, ptr %s, i64 11632
  store i32 %val, ptr %arrayidx, align 16
  %call = tail call i32 @e1000x_rxbufsize(i32 noundef %val) #13
  %rxbuf_size = getelementptr inbounds nuw i8, ptr %s, i64 142640
  store i32 %call, ptr %rxbuf_size, align 16
  %div6 = lshr i32 %val, 8
  %and = and i32 %div6, 3
  %add = add nuw nsw i32 %and, 1
  %rxbuf_min_shift = getelementptr inbounds nuw i8, ptr %s, i64 142644
  store i32 %add, ptr %rxbuf_min_shift, align 4
  %flush_queue_timer = getelementptr inbounds nuw i8, ptr %s, i64 208544
  %0 = load ptr, ptr %flush_queue_timer, align 16
  %call.i = tail call i64 @qemu_clock_get_ns(i32 noundef 1) #13
  %div.i = sdiv i64 %call.i, 1000000
  %add2 = add nsw i64 %div.i, 1000
  tail call void @timer_mod(ptr noundef %0, i64 noundef %add2) #13
  ret void
}